; Function Attrs: mustprogress nounwind uwtable
define internal void @_ZN12_GLOBAL__N_113OnDestructionD2Ev(ptr nocapture noundef nonnull readonly align 8 dereferenceable(8) %this) unnamed_addr #1 align 2 personality ptr @__gxx_personality_v0 {
entry:
  %0 = load ptr, ptr %this, align 8
  invoke void %0()
          to label %invoke.cont unwind label %terminate.lpad

invoke.cont:                                      ; preds = %entry
  ret void

terminate.lpad:                                   ; preds = %entry
  %1 = landingpad { ptr, i32 }
          catch ptr null
  %2 = extractvalue { ptr, i32 } %1, 0
  tail call void @__clang_call_terminate(ptr %2) #14
  unreachable
}